target datalayout = "e-m:e-p270:32:32-p271:32:32-p272:64:64-i64:64-i128:128-f80:128-n8:16:32:64-S128"
target triple = "x86_64-pc-linux-gnu"

%struct.Ndr_Data_t_ = type { i32, i32, ptr, ptr }

; Function Attrs: nounwind uwtable
define internal void @Ndr_DataAddTo(ptr noundef %0, i32 noundef %1, i32 noundef %2) #0 {
  %4 = alloca ptr, align 8
  %5 = alloca i32, align 4
  %6 = alloca i32, align 4
  store ptr %0, ptr %4, align 8
  store i32 %1, ptr %5, align 4
  store i32 %2, ptr %6, align 4
  %7 = load i32, ptr %6, align 4
  %8 = load ptr, ptr %4, align 8
  %9 = getelementptr inbounds %struct.Ndr_Data_t_, ptr %8, i32 0, i32 3
  %10 = load ptr, ptr %9, align 8
  %11 = load i32, ptr %5, align 4
  %12 = sext i32 %11 to i64
  %13 = getelementptr inbounds i32, ptr %10, i64 %12
  %14 = load i32, ptr %13, align 4
  %15 = add i32 %14, %7
  store i32 %15, ptr %13, align 4
  ret void
}

; Function Attrs: nounwind uwtable
define internal void @Ndr_DataPushString(ptr noundef %0, i32 noundef %1, i32 noundef %2, ptr noundef %3) #0 {
  %5 = alloca ptr, align 8
  %6 = alloca i32, align 4
  %7 = alloca i32, align 4
  %8 = alloca ptr, align 8
  %9 = alloca i32, align 4
  %10 = alloca ptr, align 8
  store ptr %0, ptr %5, align 8
  store i32 %1, ptr %6, align 4
  store i32 %2, ptr %7, align 4
  store ptr %3, ptr %8, align 8
  %11 = load ptr, ptr %8, align 8
  %12 = icmp ne ptr %11, null
  br i1 %12, label %14, label %13

13:                                               ; preds = %4
  br label %39

14:                                               ; preds = %4
  %15 = load i32, ptr %6, align 4
  %16 = icmp eq i32 %15, 75
  br i1 %16, label %17, label %20

17:                                               ; preds = %14
  %18 = load ptr, ptr %5, align 8
  %19 = load i32, ptr %7, align 4
  call void @Ndr_DataPushArray(ptr noundef %18, i32 noundef %19, i32 noundef 2, ptr noundef %8)
  br label %39

20:                                               ; preds = %14
  %21 = load ptr, ptr %8, align 8
  %22 = call i64 @strlen(ptr noundef %21) #12
  %23 = trunc i64 %22 to i32
  %24 = add nsw i32 %23, 4
  %25 = sdiv i32 %24, 4
  store i32 %25, ptr %9, align 4
  %26 = load i32, ptr %9, align 4
  %27 = mul nsw i32 4, %26
  %28 = sext i32 %27 to i64
  %29 = call noalias ptr @calloc(i64 noundef 1, i64 noundef %28) #15
  store ptr %29, ptr %10, align 8
  %30 = load ptr, ptr %10, align 8
  %31 = load ptr, ptr %8, align 8
  %32 = load ptr, ptr %8, align 8
  %33 = call i64 @strlen(ptr noundef %32) #12
  call void @llvm.memcpy.p0.p0.i64(ptr align 4 %30, ptr align 1 %31, i64 %33, i1 false)
  %34 = load ptr, ptr %5, align 8
  %35 = load i32, ptr %7, align 4
  %36 = load i32, ptr %9, align 4
  %37 = load ptr, ptr %10, align 8
  call void @Ndr_DataPushArray(ptr noundef %34, i32 noundef %35, i32 noundef %36, ptr noundef %37)
  %38 = load ptr, ptr %10, align 8
  call void @free(ptr noundef %38) #13
  br label %39

39:                                               ; preds = %20, %17, %13
  ret void
}

; Function Attrs: nounwind uwtable
define internal void @Ndr_DataPushArray(ptr noundef %0, i32 noundef %1, i32 noundef %2, ptr noundef %3) #0 {
  %5 = alloca ptr, align 8
  %6 = alloca i32, align 4
  %7 = alloca i32, align 4
  %8 = alloca ptr, align 8
  store ptr %0, ptr %5, align 8
  store i32 %1, ptr %6, align 4
  store i32 %2, ptr %7, align 4
  store ptr %3, ptr %8, align 8
  %9 = load i32, ptr %7, align 4
  %10 = icmp ne i32 %9, 0
  br i1 %10, label %12, label %11

11:                                               ; preds = %4
  br label %44

12:                                               ; preds = %4
  %13 = load ptr, ptr %5, align 8
  %14 = load i32, ptr %7, align 4
  call void @Ndr_DataResize(ptr noundef %13, i32 noundef %14)
  %15 = load ptr, ptr %5, align 8
  %16 = getelementptr inbounds %struct.Ndr_Data_t_, ptr %15, i32 0, i32 2
  %17 = load ptr, ptr %16, align 8
  %18 = load ptr, ptr %5, align 8
  %19 = getelementptr inbounds %struct.Ndr_Data_t_, ptr %18, i32 0, i32 0
  %20 = load i32, ptr %19, align 8
  %21 = sext i32 %20 to i64
  %22 = getelementptr inbounds i8, ptr %17, i64 %21
  %23 = load i32, ptr %6, align 4
  %24 = trunc i32 %23 to i8
  %25 = load i32, ptr %7, align 4
  %26 = sext i32 %25 to i64
  call void @llvm.memset.p0.i64(ptr align 1 %22, i8 %24, i64 %26, i1 false)
  %27 = load ptr, ptr %5, align 8
  %28 = getelementptr inbounds %struct.Ndr_Data_t_, ptr %27, i32 0, i32 3
  %29 = load ptr, ptr %28, align 8
  %30 = load ptr, ptr %5, align 8
  %31 = getelementptr inbounds %struct.Ndr_Data_t_, ptr %30, i32 0, i32 0
  %32 = load i32, ptr %31, align 8
  %33 = sext i32 %32 to i64
  %34 = getelementptr inbounds i32, ptr %29, i64 %33
  %35 = load ptr, ptr %8, align 8
  %36 = load i32, ptr %7, align 4
  %37 = sext i32 %36 to i64
  %38 = mul i64 4, %37
  call void @llvm.memcpy.p0.p0.i64(ptr align 4 %34, ptr align 4 %35, i64 %38, i1 false)
  %39 = load i32, ptr %7, align 4
  %40 = load ptr, ptr %5, align 8
  %41 = getelementptr inbounds %struct.Ndr_Data_t_, ptr %40, i32 0, i32 0
  %42 = load i32, ptr %41, align 8
  %43 = add nsw i32 %42, %39
  store i32 %43, ptr %41, align 8
  br label %44

44:                                               ; preds = %12, %11
  ret void
}

; Function Attrs: nounwind uwtable
define internal void @Ndr_DataPushRange(ptr noundef %0, i32 noundef %1, i32 noundef %2, i32 noundef %3) #0 {
  %5 = alloca ptr, align 8
  %6 = alloca i32, align 4
  %7 = alloca i32, align 4
  %8 = alloca i32, align 4
  store ptr %0, ptr %5, align 8
  store i32 %1, ptr %6, align 4
  store i32 %2, ptr %7, align 4
  store i32 %3, ptr %8, align 4
  %9 = load i32, ptr %8, align 4
  %10 = icmp ne i32 %9, 0
  br i1 %10, label %11, label %18

11:                                               ; preds = %4
  %12 = load ptr, ptr %5, align 8
  %13 = load i32, ptr %6, align 4
  call void @Ndr_DataPush(ptr noundef %12, i32 noundef 8, i32 noundef %13)
  %14 = load ptr, ptr %5, align 8
  %15 = load i32, ptr %7, align 4
  call void @Ndr_DataPush(ptr noundef %14, i32 noundef 8, i32 noundef %15)
  %16 = load ptr, ptr %5, align 8
  %17 = load i32, ptr %8, align 4
  call void @Ndr_DataPush(ptr noundef %16, i32 noundef 8, i32 noundef %17)
  br label %37

18:                                               ; preds = %4
  %19 = load i32, ptr %6, align 4
  %20 = icmp ne i32 %19, 0
  br i1 %20, label %25, label %21

21:                                               ; preds = %18
  %22 = load i32, ptr %7, align 4
  %23 = icmp ne i32 %22, 0
  br i1 %23, label %25, label %24

24:                                               ; preds = %21
  br label %37

25:                                               ; preds = %21, %18
  %26 = load i32, ptr %6, align 4
  %27 = load i32, ptr %7, align 4
  %28 = icmp eq i32 %26, %27
  br i1 %28, label %29, label %32

29:                                               ; preds = %25
  %30 = load ptr, ptr %5, align 8
  %31 = load i32, ptr %6, align 4
  call void @Ndr_DataPush(ptr noundef %30, i32 noundef 8, i32 noundef %31)
  br label %37

32:                                               ; preds = %25
  %33 = load ptr, ptr %5, align 8
  %34 = load i32, ptr %6, align 4
  call void @Ndr_DataPush(ptr noundef %33, i32 noundef 8, i32 noundef %34)
  %35 = load ptr, ptr %5, align 8
  %36 = load i32, ptr %7, align 4
  call void @Ndr_DataPush(ptr noundef %35, i32 noundef 8, i32 noundef %36)
  br label %37

37:                                               ; preds = %32, %29, %24, %11
  ret void
}

; Function Attrs: nounwind uwtable
define internal void @Ndr_DataPush(ptr noundef %0, i32 noundef %1, i32 noundef %2) #0 {
  %4 = alloca ptr, align 8
  %5 = alloca i32, align 4
  %6 = alloca i32, align 4
  store ptr %0, ptr %4, align 8
  store i32 %1, ptr %5, align 4
  store i32 %2, ptr %6, align 4
  %7 = load i32, ptr %5, align 4
  %8 = trunc i32 %7 to i8
  %9 = load ptr, ptr %4, align 8
  %10 = getelementptr inbounds %struct.Ndr_Data_t_, ptr %9, i32 0, i32 2
  %11 = load ptr, ptr %10, align 8
  %12 = load ptr, ptr %4, align 8
  %13 = getelementptr inbounds %struct.Ndr_Data_t_, ptr %12, i32 0, i32 0
  %14 = load i32, ptr %13, align 8
  %15 = sext i32 %14 to i64
  %16 = getelementptr inbounds i8, ptr %11, i64 %15
  store i8 %8, ptr %16, align 1
  %17 = load i32, ptr %6, align 4
  %18 = load ptr, ptr %4, align 8
  %19 = getelementptr inbounds %struct.Ndr_Data_t_, ptr %18, i32 0, i32 3
  %20 = load ptr, ptr %19, align 8
  %21 = load ptr, ptr %4, align 8
  %22 = getelementptr inbounds %struct.Ndr_Data_t_, ptr %21, i32 0, i32 0
  %23 = load i32, ptr %22, align 8
  %24 = add nsw i32 %23, 1
  store i32 %24, ptr %22, align 8
  %25 = sext i32 %23 to i64
  %26 = getelementptr inbounds i32, ptr %20, i64 %25
  store i32 %17, ptr %26, align 4
  ret void
}

; Function Attrs: nounwind uwtable
define internal void @Ndr_DataResize(ptr noundef %0, i32 noundef %1) #0 {
  %3 = alloca ptr, align 8
  %4 = alloca i32, align 4
  store ptr %0, ptr %3, align 8
  store i32 %1, ptr %4, align 4
  %5 = load ptr, ptr %3, align 8
  %6 = getelementptr inbounds %struct.Ndr_Data_t_, ptr %5, i32 0, i32 0
  %7 = load i32, ptr %6, align 8
  %8 = load i32, ptr %4, align 4
  %9 = add nsw i32 %7, %8
  %10 = load ptr, ptr %3, align 8
  %11 = getelementptr inbounds %struct.Ndr_Data_t_, ptr %10, i32 0, i32 1
  %12 = load i32, ptr %11, align 4
  %13 = icmp sle i32 %9, %12
  br i1 %13, label %14, label %15

14:                                               ; preds = %2
  br label %62

15:                                               ; preds = %2
  %16 = load ptr, ptr %3, align 8
  %17 = getelementptr inbounds %struct.Ndr_Data_t_, ptr %16, i32 0, i32 1
  %18 = load i32, ptr %17, align 4
  %19 = mul nsw i32 2, %18
  %20 = load ptr, ptr %3, align 8
  %21 = getelementptr inbounds %struct.Ndr_Data_t_, ptr %20, i32 0, i32 0
  %22 = load i32, ptr %21, align 8
  %23 = load i32, ptr %4, align 4
  %24 = add nsw i32 %22, %23
  %25 = icmp sgt i32 %19, %24
  br i1 %25, label %26, label %31

26:                                               ; preds = %15
  %27 = load ptr, ptr %3, align 8
  %28 = getelementptr inbounds %struct.Ndr_Data_t_, ptr %27, i32 0, i32 1
  %29 = load i32, ptr %28, align 4
  %30 = mul nsw i32 2, %29
  br label %37

31:                                               ; preds = %15
  %32 = load ptr, ptr %3, align 8
  %33 = getelementptr inbounds %struct.Ndr_Data_t_, ptr %32, i32 0, i32 0
  %34 = load i32, ptr %33, align 8
  %35 = load i32, ptr %4, align 4
  %36 = add nsw i32 %34, %35
  br label %37

37:                                               ; preds = %31, %26
  %38 = phi i32 [ %30, %26 ], [ %36, %31 ]
  %39 = load ptr, ptr %3, align 8
  %40 = getelementptr inbounds %struct.Ndr_Data_t_, ptr %39, i32 0, i32 1
  store i32 %38, ptr %40, align 4
  %41 = load ptr, ptr %3, align 8
  %42 = getelementptr inbounds %struct.Ndr_Data_t_, ptr %41, i32 0, i32 2
  %43 = load ptr, ptr %42, align 8
  %44 = load ptr, ptr %3, align 8
  %45 = getelementptr inbounds %struct.Ndr_Data_t_, ptr %44, i32 0, i32 1
  %46 = load i32, ptr %45, align 4
  %47 = sext i32 %46 to i64
  %48 = call ptr @realloc(ptr noundef %43, i64 noundef %47) #14
  %49 = load ptr, ptr %3, align 8
  %50 = getelementptr inbounds %struct.Ndr_Data_t_, ptr %49, i32 0, i32 2
  store ptr %48, ptr %50, align 8
  %51 = load ptr, ptr %3, align 8
  %52 = getelementptr inbounds %struct.Ndr_Data_t_, ptr %51, i32 0, i32 3
  %53 = load ptr, ptr %52, align 8
  %54 = load ptr, ptr %3, align 8
  %55 = getelementptr inbounds %struct.Ndr_Data_t_, ptr %54, i32 0, i32 1
  %56 = load i32, ptr %55, align 4
  %57 = mul nsw i32 4, %56
  %58 = sext i32 %57 to i64
  %59 = call ptr @realloc(ptr noundef %53, i64 noundef %58) #14
  %60 = load ptr, ptr %3, align 8
  %61 = getelementptr inbounds %struct.Ndr_Data_t_, ptr %60, i32 0, i32 3
  store ptr %59, ptr %61, align 8
  br label %62

62:                                               ; preds = %37, %14
  ret void
}

; Function Attrs: nounwind uwtable
define internal void @Ndr_AddObject(ptr noundef %0, i32 noundef %1, i32 noundef %2, i32 noundef %3, i32 noundef %4, i32 noundef %5, i32 noundef %6, i32 noundef %7, ptr noundef %8, i32 noundef %9, ptr noundef %10, ptr noundef %11) #0 {
  %13 = alloca ptr, align 8
  %14 = alloca i32, align 4
  %15 = alloca i32, align 4
  %16 = alloca i32, align 4
  %17 = alloca i32, align 4
  %18 = alloca i32, align 4
  %19 = alloca i32, align 4
  %20 = alloca i32, align 4
  %21 = alloca ptr, align 8
  %22 = alloca i32, align 4
  %23 = alloca ptr, align 8
  %24 = alloca ptr, align 8
  %25 = alloca ptr, align 8
  %26 = alloca i32, align 4
  %27 = alloca i32, align 4
  store ptr %0, ptr %13, align 8
  store i32 %1, ptr %14, align 4
  store i32 %2, ptr %15, align 4
  store i32 %3, ptr %16, align 4
  store i32 %4, ptr %17, align 4
  store i32 %5, ptr %18, align 4
  store i32 %6, ptr %19, align 4
  store i32 %7, ptr %20, align 4
  store ptr %8, ptr %21, align 8
  store i32 %9, ptr %22, align 4
  store ptr %10, ptr %23, align 8
  store ptr %11, ptr %24, align 8
  %28 = load ptr, ptr %13, align 8
  store ptr %28, ptr %25, align 8
  %29 = load i32, ptr %14, align 4
  %30 = sub nsw i32 %29, 256
  store i32 %30, ptr %26, align 4
  %31 = load ptr, ptr %25, align 8
  %32 = getelementptr inbounds %struct.Ndr_Data_t_, ptr %31, i32 0, i32 0
  %33 = load i32, ptr %32, align 8
  store i32 %33, ptr %27, align 4
  %34 = load ptr, ptr %25, align 8
  call void @Ndr_DataResize(ptr noundef %34, i32 noundef 6)
  %35 = load ptr, ptr %25, align 8
  call void @Ndr_DataPush(ptr noundef %35, i32 noundef 3, i32 noundef 0)
  %36 = load ptr, ptr %25, align 8
  %37 = load i32, ptr %15, align 4
  call void @Ndr_DataPush(ptr noundef %36, i32 noundef 6, i32 noundef %37)
  %38 = load ptr, ptr %25, align 8
  %39 = load i32, ptr %17, align 4
  %40 = load i32, ptr %18, align 4
  %41 = load i32, ptr %19, align 4
  call void @Ndr_DataPushRange(ptr noundef %38, i32 noundef %39, i32 noundef %40, i32 noundef %41)
  %42 = load i32, ptr %16, align 4
  %43 = icmp ne i32 %42, 0
  br i1 %43, label %44, label %47

44:                                               ; preds = %12
  %45 = load ptr, ptr %25, align 8
  %46 = load i32, ptr %16, align 4
  call void @Ndr_DataPush(ptr noundef %45, i32 noundef 7, i32 noundef %46)
  br label %47

47:                                               ; preds = %44, %12
  %48 = load ptr, ptr %25, align 8
  %49 = load i32, ptr %20, align 4
  %50 = load ptr, ptr %21, align 8
  call void @Ndr_DataPushArray(ptr noundef %48, i32 noundef 4, i32 noundef %49, ptr noundef %50)
  %51 = load ptr, ptr %25, align 8
  %52 = load i32, ptr %22, align 4
  %53 = load ptr, ptr %23, align 8
  call void @Ndr_DataPushArray(ptr noundef %51, i32 noundef 5, i32 noundef %52, ptr noundef %53)
  %54 = load ptr, ptr %25, align 8
  %55 = load i32, ptr %15, align 4
  %56 = load ptr, ptr %24, align 8
  call void @Ndr_DataPushString(ptr noundef %54, i32 noundef %55, i32 noundef 9, ptr noundef %56)
  %57 = load ptr, ptr %25, align 8
  %58 = load i32, ptr %27, align 4
  %59 = load ptr, ptr %25, align 8
  %60 = getelementptr inbounds %struct.Ndr_Data_t_, ptr %59, i32 0, i32 0
  %61 = load i32, ptr %60, align 8
  %62 = load i32, ptr %27, align 4
  %63 = sub nsw i32 %61, %62
  call void @Ndr_DataAddTo(ptr noundef %57, i32 noundef %58, i32 noundef %63)
  %64 = load ptr, ptr %25, align 8
  %65 = load i32, ptr %26, align 4
  %66 = load ptr, ptr %25, align 8
  %67 = getelementptr inbounds %struct.Ndr_Data_t_, ptr %66, i32 0, i32 0
  %68 = load i32, ptr %67, align 8
  %69 = load i32, ptr %27, align 4
  %70 = sub nsw i32 %68, %69
  call void @Ndr_DataAddTo(ptr noundef %64, i32 noundef %65, i32 noundef %70)
  %71 = load ptr, ptr %25, align 8
  %72 = load ptr, ptr %25, align 8
  %73 = getelementptr inbounds %struct.Ndr_Data_t_, ptr %72, i32 0, i32 0
  %74 = load i32, ptr %73, align 8
  %75 = load i32, ptr %27, align 4
  %76 = sub nsw i32 %74, %75
  call void @Ndr_DataAddTo(ptr noundef %71, i32 noundef 0, i32 noundef %76)
  ret void
}