; Function Attrs: mustprogress nounwind willreturn uwtable
define internal fastcc void @Ndr_AddObject(ptr noundef captures(none) %0, i32 noundef range(i32 -2147483392, -2147483648) %1, i32 noundef range(i32 -1, 79) %2, i32 noundef range(i32 -2147483648, 2147483647) %3, ptr noundef readonly captures(none) %4, ptr noundef nonnull readonly captures(none) %5) unnamed_addr #8 {
  %7 = load i32, ptr %0, align 8
  %8 = add nsw i32 %7, 6
  %9 = getelementptr inbounds nuw i8, ptr %0, i64 4
  %10 = load i32, ptr %9, align 4
  %.not.i = icmp sgt i32 %8, %10
  br i1 %.not.i, label %11, label %Ndr_DataResize.exit

11:                                               ; preds = %6
  %12 = shl nsw i32 %10, 1
  %..i = tail call i32 @llvm.smax.i32(i32 %12, i32 %8)
  store i32 %..i, ptr %9, align 4
  %13 = getelementptr inbounds nuw i8, ptr %0, i64 8
  %14 = load ptr, ptr %13, align 8
  %15 = sext i32 %..i to i64
  %16 = tail call ptr @realloc(ptr noundef %14, i64 noundef %15) #30
  store ptr %16, ptr %13, align 8
  %17 = getelementptr inbounds nuw i8, ptr %0, i64 16
  %18 = load ptr, ptr %17, align 8
  %19 = load i32, ptr %9, align 4
  %20 = shl nsw i32 %19, 2
  %21 = sext i32 %20 to i64
  %22 = tail call ptr @realloc(ptr noundef %18, i64 noundef %21) #30
  store ptr %22, ptr %17, align 8
  %.pre = load i32, ptr %0, align 8
  br label %Ndr_DataResize.exit

Ndr_DataResize.exit:                              ; preds = %6, %11
  %23 = phi i32 [ %7, %6 ], [ %.pre, %11 ]
  %24 = getelementptr inbounds nuw i8, ptr %0, i64 8
  %25 = load ptr, ptr %24, align 8
  %26 = sext i32 %23 to i64
  %27 = getelementptr inbounds i8, ptr %25, i64 %26
  store i8 3, ptr %27, align 1
  %28 = getelementptr inbounds nuw i8, ptr %0, i64 16
  %29 = load ptr, ptr %28, align 8
  %30 = load i32, ptr %0, align 8
  %31 = add nsw i32 %30, 1
  store i32 %31, ptr %0, align 8
  %32 = sext i32 %30 to i64
  %33 = getelementptr inbounds i32, ptr %29, i64 %32
  store i32 0, ptr %33, align 4
  %34 = load ptr, ptr %24, align 8
  %35 = load i32, ptr %0, align 8
  %36 = sext i32 %35 to i64
  %37 = getelementptr inbounds i8, ptr %34, i64 %36
  store i8 6, ptr %37, align 1
  %38 = load ptr, ptr %28, align 8
  %39 = load i32, ptr %0, align 8
  %40 = add nsw i32 %39, 1
  store i32 %40, ptr %0, align 8
  %41 = sext i32 %39 to i64
  %42 = getelementptr inbounds i32, ptr %38, i64 %41
  store i32 %2, ptr %42, align 4
  %.not.i35 = icmp eq i32 %3, 0
  %.pre1 = load i32, ptr %0, align 8
  br i1 %.not.i35, label %Ndr_DataPushArray.exit, label %43

43:                                               ; preds = %Ndr_DataResize.exit
  %44 = add nsw i32 %.pre1, %3
  %45 = load i32, ptr %9, align 4
  %.not.i.i = icmp sgt i32 %44, %45
  br i1 %.not.i.i, label %46, label %Ndr_DataResize.exit.i

46:                                               ; preds = %43
  %47 = shl nsw i32 %45, 1
  %..i.i = tail call i32 @llvm.smax.i32(i32 %47, i32 %44)
  store i32 %..i.i, ptr %9, align 4
  %48 = load ptr, ptr %24, align 8
  %49 = sext i32 %..i.i to i64
  %50 = tail call ptr @realloc(ptr noundef %48, i64 noundef %49) #30
  store ptr %50, ptr %24, align 8
  %51 = load ptr, ptr %28, align 8
  %52 = load i32, ptr %9, align 4
  %53 = shl nsw i32 %52, 2
  %54 = sext i32 %53 to i64
  %55 = tail call ptr @realloc(ptr noundef %51, i64 noundef %54) #30
  store ptr %55, ptr %28, align 8
  %.pre.i = load i32, ptr %0, align 8
  br label %Ndr_DataResize.exit.i

Ndr_DataResize.exit.i:                            ; preds = %46, %43
  %56 = phi i32 [ %.pre1, %43 ], [ %.pre.i, %46 ]
  %57 = load ptr, ptr %24, align 8
  %58 = sext i32 %56 to i64
  %59 = getelementptr inbounds i8, ptr %57, i64 %58
  %60 = sext i32 %3 to i64
  tail call void @llvm.memset.p0.i64(ptr align 1 %59, i8 4, i64 %60, i1 false)
  %61 = load ptr, ptr %28, align 8
  %62 = load i32, ptr %0, align 8
  %63 = sext i32 %62 to i64
  %64 = getelementptr inbounds i32, ptr %61, i64 %63
  %65 = shl nsw i64 %60, 2
  tail call void @llvm.memcpy.p0.p0.i64(ptr align 4 %64, ptr readonly align 4 %4, i64 %65, i1 false)
  %66 = load i32, ptr %0, align 8
  %67 = add nsw i32 %66, %3
  store i32 %67, ptr %0, align 8
  br label %Ndr_DataPushArray.exit

Ndr_DataPushArray.exit:                           ; preds = %Ndr_DataResize.exit, %Ndr_DataResize.exit.i
  %68 = phi i32 [ %.pre1, %Ndr_DataResize.exit ], [ %67, %Ndr_DataResize.exit.i ]
  %69 = load i32, ptr %9, align 4
  %.not.i.i36.not = icmp slt i32 %68, %69
  br i1 %.not.i.i36.not, label %Ndr_DataPushArray.exit40, label %70

70:                                               ; preds = %Ndr_DataPushArray.exit
  %71 = add nsw i32 %68, 1
  %72 = shl nsw i32 %69, 1
  %..i.i38 = tail call i32 @llvm.smax.i32(i32 %72, i32 %71)
  store i32 %..i.i38, ptr %9, align 4
  %73 = load ptr, ptr %24, align 8
  %74 = sext i32 %..i.i38 to i64
  %75 = tail call ptr @realloc(ptr noundef %73, i64 noundef %74) #30
  store ptr %75, ptr %24, align 8
  %76 = load ptr, ptr %28, align 8
  %77 = load i32, ptr %9, align 4
  %78 = shl nsw i32 %77, 2
  %79 = sext i32 %78 to i64
  %80 = tail call ptr @realloc(ptr noundef %76, i64 noundef %79) #30
  store ptr %80, ptr %28, align 8
  %.pre.i39 = load i32, ptr %0, align 8
  br label %Ndr_DataPushArray.exit40

Ndr_DataPushArray.exit40:                         ; preds = %Ndr_DataPushArray.exit, %70
  %81 = phi i32 [ %68, %Ndr_DataPushArray.exit ], [ %.pre.i39, %70 ]
  %82 = load ptr, ptr %24, align 8
  %83 = sext i32 %81 to i64
  %84 = getelementptr inbounds i8, ptr %82, i64 %83
  store i8 5, ptr %84, align 1
  %85 = load ptr, ptr %28, align 8
  %86 = load i32, ptr %0, align 8
  %87 = sext i32 %86 to i64
  %88 = getelementptr inbounds i32, ptr %85, i64 %87
  %89 = load i32, ptr %5, align 4
  store i32 %89, ptr %88, align 4
  %90 = load i32, ptr %0, align 8
  %91 = add nsw i32 %90, 1
  store i32 %91, ptr %0, align 8
  %92 = sub i32 %91, %7
  %.val34 = load ptr, ptr %28, align 8
  %93 = sext i32 %7 to i64
  %94 = getelementptr inbounds i32, ptr %.val34, i64 %93
  %95 = load i32, ptr %94, align 4
  %96 = add i32 %92, %95
  store i32 %96, ptr %94, align 4
  %97 = load i32, ptr %0, align 8
  %98 = sub i32 %97, %7
  %.val33 = load ptr, ptr %28, align 8
  %99 = sext i32 %1 to i64
  %100 = getelementptr i32, ptr %.val33, i64 %99
  %101 = getelementptr i8, ptr %100, i64 -1024
  %102 = load i32, ptr %101, align 4
  %103 = add i32 %98, %102
  store i32 %103, ptr %101, align 4
  %104 = load i32, ptr %0, align 8
  %105 = sub i32 %104, %7
  %.val = load ptr, ptr %28, align 8
  %106 = load i32, ptr %.val, align 4
  %107 = add i32 %105, %106
  store i32 %107, ptr %.val, align 4
  ret void
}